target datalayout = "e-m:e-p270:32:32-p271:32:32-p272:64:64-i64:64-i128:128-f80:128-n8:16:32:64-S128"
target triple = "x86_64-pc-linux-gnu"

%"class.doctest::String" = type { %union.anon.7 }
%union.anon.7 = type { %"struct.doctest::String::view", [8 x i8] }
%"struct.doctest::String::view" = type { ptr, i32, i32 }

@.str.55 = private unnamed_addr constant [5 x i8] c"true\00", align 1
@.str.56 = private unnamed_addr constant [6 x i8] c"false\00", align 1
@_ZN7doctest6StringC1EPKc = dso_local unnamed_addr alias void (ptr, ptr), ptr @_ZN7doctest6StringC2EPKc

; Function Attrs: mustprogress uwtable
define dso_local void @_ZN7doctest8toStringEb(ptr dead_on_unwind noalias writable sret(%"class.doctest::String") align 8 %0, i1 noundef zeroext %1) #8 {
  %3 = alloca ptr, align 8
  %4 = alloca i8, align 1
  store ptr %0, ptr %3, align 8
  %5 = zext i1 %1 to i8
  store i8 %5, ptr %4, align 1, !tbaa !16
  %6 = load i8, ptr %4, align 1, !tbaa !16, !range !36, !noundef !37
  %7 = trunc i8 %6 to i1
  %8 = select i1 %7, ptr @.str.55, ptr @.str.56
  call void @_ZN7doctest6StringC1EPKc(ptr noundef nonnull align 8 dereferenceable(24) %0, ptr noundef %8)
  ret void
}