; Function Attrs: mustprogress nofree norecurse nosync nounwind willreturn memory(argmem: readwrite) uwtable
define dso_local void @_ZN7doctest8toStringEb(ptr dead_on_unwind noalias writable writeonly sret(%"class.doctest::String") align 8 captures(none) initializes((23, 24)) %0, i1 noundef zeroext %1) local_unnamed_addr #18 {
_ZN7doctest6StringC2EPKc.exit:
  %2 = select i1 %1, i64 4, i64 5
  %3 = getelementptr inbounds nuw [24 x i8], ptr %0, i64 0, i64 %2
  store i8 0, ptr %3, align 1, !tbaa !38
  %4 = trunc nuw nsw i64 %2 to i8
  %5 = sub nuw nsw i8 23, %4
  %6 = getelementptr inbounds nuw i8, ptr %0, i64 23
  store i8 %5, ptr %6, align 1, !tbaa !38
  %7 = select i1 %1, ptr @.str.55, ptr @.str.56
  tail call void @llvm.memcpy.p0.p0.i64(ptr noundef nonnull align 8 dereferenceable(4) %0, ptr noundef nonnull readonly align 1 dereferenceable(4) %7, i64 %2, i1 false)
  ret void
}